(lp0
VMMM
p1
aVABT
p2
aVABBV
p3
aVACN
p4
aVATVI
p5
aVAYI
p6
aVADBE
p7
aVAMD
p8
aVAAP
p9
aVAES
p10
aVAET
p11
aVAMG
p12
aVAFL
p13
aVA
p14
aVAPD
p15
aVAKAM
p16
aVALK
p17
aVALB
p18
aVARE
p19
aVAGN
p20
aVLNT
p21
aVALXN
p22
aVALLE
p23
aVADS
p24
aVALL
p25
aVGOOGL
p26
aVGOOG
p27
aVMO
p28
aVAMZN
p29
aVAEE
p30
aVAAL
p31
aVAEP
p32
aVAXP
p33
aVAIG
p34
aVAMT
p35
aVAWK
p36
aVAMP
p37
aVABC
p38
aVAME
p39
aVAMGN
p40
aVAPH
p41
aVAPC
p42
aVADI
p43
aVANTM
p44
aVAON
p45
aVAPA
p46
aVAIV
p47
aVAAPL
p48
aVAMAT
p49
aVADM
p50
aVARNC
p51
aVAJG
p52
aVAIZ
p53
aVT
p54
aVADSK
p55
aVADP
p56
aVAN
p57
aVAZO
p58
aVAVB
p59
aVAVY
p60
aVBHI
p61
aVBLL
p62
aVBAC
p63
aVBK
p64
aVBCR
p65
aVBAX
p66
aVBBT
p67
aVBDX
p68
aVBBBY
p69
aVBRK.B
p70
aVBBY
p71
aVBIIB
p72
aVBLK
p73
aVHRB
p74
aVBA
p75
aVBWA
p76
aVBXP
p77
aVBSX
p78
aVBMY
p79
aVAVGO
p80
aVBF.B
p81
aVCHRW
p82
aVCA
p83
aVCOG
p84
aVCPB
p85
aVCOF
p86
aVCAH
p87
aVCBOE
p88
aVKMX
p89
aVCCL
p90
aVCAT
p91
aVCBG
p92
aVCBS
p93
aVCELG
p94
aVCNC
p95
aVCNP
p96
aVCTL
p97
aVCERN
p98
aVCF
p99
aVSCHW
p100
aVCHTR
p101
aVCHK
p102
aVCVX
p103
aVCMG
p104
aVCB
p105
aVCHD
p106
aVCI
p107
aVXEC
p108
aVCINF
p109
aVCTAS
p110
aVCSCO
p111
aVC
p112
aVCFG
p113
aVCTXS
p114
aVCLX
p115
aVCME
p116
aVCMS
p117
aVCOH
p118
aVKO
p119
aVCTSH
p120
aVCL
p121
aVCMCSA
p122
aVCMA
p123
aVCAG
p124
aVCXO
p125
aVCOP
p126
aVED
p127
aVSTZ
p128
aVGLW
p129
aVCOST
p130
aVCOTY
p131
aVCCI
p132
aVCSRA
p133
aVCSX
p134
aVCMI
p135
aVCVS
p136
aVDHI
p137
aVDHR
p138
aVDRI
p139
aVDVA
p140
aVDE
p141
aVDLPH
p142
aVDAL
p143
aVXRAY
p144
aVDVN
p145
aVDLR
p146
aVDFS
p147
aVDISCA
p148
aVDISCK
p149
aVDISH
p150
aVDG
p151
aVDLTR
p152
aVD
p153
aVDOV
p154
aVDOW
p155
aVDPS
p156
aVDTE
p157
aVDD
p158
aVDUK
p159
aVDXC
p160
aVETFC
p161
aVEMN
p162
aVETN
p163
aVEBAY
p164
aVECL
p165
aVEIX
p166
aVEW
p167
aVEA
p168
aVEMR
p169
aVETR
p170
aVEVHC
p171
aVEOG
p172
aVEQT
p173
aVEFX
p174
aVEQIX
p175
aVEQR
p176
aVESS
p177
aVEL
p178
aVES
p179
aVEXC
p180
aVEXPE
p181
aVEXPD
p182
aVESRX
p183
aVEXR
p184
aVXOM
p185
aVFFIV
p186
aVFB
p187
aVFAST
p188
aVFRT
p189
aVFDX
p190
aVFIS
p191
aVFITB
p192
aVFE
p193
aVFISV
p194
aVFLIR
p195
aVFLS
p196
aVFLR
p197
aVFMC
p198
aVFTI
p199
aVFL
p200
aVF
p201
aVFTV
p202
aVFBHS
p203
aVBEN
p204
aVFCX
p205
aVGPS
p206
aVGRMN
p207
aVIT
p208
aVGD
p209
aVGE
p210
aVGGP
p211
aVGIS
p212
aVGM
p213
aVGPC
p214
aVGILD
p215
aVGPN
p216
aVGS
p217
aVGT
p218
aVGWW
p219
aVHAL
p220
aVHBI
p221
aVHOG
p222
aVHRS
p223
aVHIG
p224
aVHAS
p225
aVHCA
p226
aVHCP
p227
aVHP
p228
aVHSIC
p229
aVHES
p230
aVHPE
p231
aVHOLX
p232
aVHD
p233
aVHON
p234
aVHRL
p235
aVHST
p236
aVHPQ
p237
aVHUM
p238
aVHBAN
p239
aVIDXX
p240
aVITW
p241
aVILMN
p242
aVIR
p243
aVINTC
p244
aVICE
p245
aVIBM
p246
aVINCY
p247
aVIP
p248
aVIPG
p249
aVIFF
p250
aVINTU
p251
aVISRG
p252
aVIVZ
p253
aVIRM
p254
aVJEC
p255
aVJBHT
p256
aVSJM
p257
aVJNJ
p258
aVJCI
p259
aVJPM
p260
aVJNPR
p261
aVKSU
p262
aVK
p263
aVKEY
p264
aVKMB
p265
aVKIM
p266
aVKMI
p267
aVKLAC
p268
aVKSS
p269
aVKHC
p270
aVKR
p271
aVLB
p272
aVLLL
p273
aVLH
p274
aVLRCX
p275
aVLEG
p276
aVLEN
p277
aVLVLT
p278
aVLUK
p279
aVLLY
p280
aVLNC
p281
aVLKQ
p282
aVLMT
p283
aVL
p284
aVLOW
p285
aVLYB
p286
aVMTB
p287
aVMAC
p288
aVM
p289
aVMNK
p290
aVMRO
p291
aVMPC
p292
aVMAR
p293
aVMMC
p294
aVMLM
p295
aVMAS
p296
aVMA
p297
aVMAT
p298
aVMKC
p299
aVMCD
p300
aVMCK
p301
aVMJN
p302
aVMDT
p303
aVMRK
p304
aVMET
p305
aVMTD
p306
aVKORS
p307
aVMCHP
p308
aVMU
p309
aVMSFT
p310
aVMAA
p311
aVMHK
p312
aVTAP
p313
aVMDLZ
p314
aVMON
p315
aVMNST
p316
aVMCO
p317
aVMS
p318
aVMOS
p319
aVMSI
p320
aVMUR
p321
aVMYL
p322
aVNDAQ
p323
aVNOV
p324
aVNAVI
p325
aVNTAP
p326
aVNFLX
p327
aVNWL
p328
aVNFX
p329
aVNEM
p330
aVNWSA
p331
aVNWS
p332
aVNEE
p333
aVNLSN
p334
aVNKE
p335
aVNI
p336
aVNBL
p337
aVJWN
p338
aVNSC
p339
aVNTRS
p340
aVNOC
p341
aVNRG
p342
aVNUE
p343
aVNVDA
p344
aVORLY
p345
aVOXY
p346
aVOMC
p347
aVOKE
p348
aVORCL
p349
aVPCAR
p350
aVPH
p351
aVPDCO
p352
aVPAYX
p353
aVPYPL
p354
aVPNR
p355
aVPBCT
p356
aVPEP
p357
aVPKI
p358
aVPRGO
p359
aVPFE
p360
aVPCG
p361
aVPM
p362
aVPSX
p363
aVPNW
p364
aVPXD
p365
aVPNC
p366
aVRL
p367
aVPPG
p368
aVPPL
p369
aVPX
p370
aVPCLN
p371
aVPFG
p372
aVPG
p373
aVPGR
p374
aVPLD
p375
aVPRU
p376
aVPEG
p377
aVPSA
p378
aVPHM
p379
aVPVH
p380
aVQRVO
p381
aVPWR
p382
aVQCOM
p383
aVDGX
p384
aVRRC
p385
aVRJF
p386
aVRTN
p387
aVO
p388
aVRHT
p389
aVREG
p390
aVREGN
p391
aVRF
p392
aVRSG
p393
aVRAI
p394
aVRHI
p395
aVROK
p396
aVCOL
p397
aVROP
p398
aVROST
p399
aVRCL
p400
aVR
p401
aVCRM
p402
aVSCG
p403
aVSLB
p404
aVSNI
p405
aVSTX
p406
aVSEE
p407
aVSRE
p408
aVSHW
p409
aVSIG
p410
aVSPG
p411
aVSWKS
p412
aVSLG
p413
aVSNA
p414
aVSO
p415
aVLUV
p416
aVSPGI
p417
aVSWK
p418
aVSPLS
p419
aVSBUX
p420
aVSTT
p421
aVSRCL
p422
aVSYK
p423
aVSTI
p424
aVSYMC
p425
aVSYF
p426
aVSNPS
p427
aVSYY
p428
aVTROW
p429
aVTGT
p430
aVTEL
p431
aVTGNA
p432
aVTDC
p433
aVTSO
p434
aVTXN
p435
aVTXT
p436
aVCOO
p437
aVHSY
p438
aVTRV
p439
aVTMO
p440
aVTIF
p441
aVTWX
p442
aVTJX
p443
aVTMK
p444
aVTSS
p445
aVTSCO
p446
aVTDG
p447
aVRIG
p448
aVTRIP
p449
aVFOXA
p450
aVFOX
p451
aVTSN
p452
aVUDR
p453
aVULTA
p454
aVUSB
p455
aVUA
p456
aVUAA
p457
aVUNP
p458
aVUAL
p459
aVUNH
p460
aVUPS
p461
aVURI
p462
aVUTX
p463
aVUHS
p464
aVUNM
p465
aVVFC
p466
aVVLO
p467
aVVAR
p468
aVVTR
p469
aVVRSN
p470
aVVRSK
p471
aVVZ
p472
aVVRTX
p473
aVVIAB
p474
aVV
p475
aVVNO
p476
aVVMC
p477
aVWMT
p478
aVWBA
p479
aVDIS
p480
aVWM
p481
aVWAT
p482
aVWEC
p483
aVWFC
p484
aVHCN
p485
aVWDC
p486
aVWU
p487
aVWRK
p488
aVWY
p489
aVWHR
p490
aVWFM
p491
aVWMB
p492
aVWLTW
p493
aVWYN
p494
aVWYNN
p495
aVXEL
p496
aVXRX
p497
aVXLNX
p498
aVXL
p499
aVXYL
p500
aVYHOO
p501
aVYUM
p502
aVZBH
p503
aVZION
p504
aVZTS
p505
a.